; Function Attrs: mustprogress nounwind willreturn uwtable
define void @_Z32textFileFormatYypop_buffer_statePv(ptr noundef captures(none) %0) local_unnamed_addr #8 {
  %2 = getelementptr inbounds nuw i8, ptr %0, i64 40
  %3 = load ptr, ptr %2, align 8
  %.not = icmp eq ptr %3, null
  br i1 %.not, label %.critedge, label %4

4:                                                ; preds = %1
  %5 = getelementptr inbounds nuw i8, ptr %0, i64 24
  %6 = load i64, ptr %5, align 8
  %7 = getelementptr inbounds ptr, ptr %3, i64 %6
  %8 = load ptr, ptr %7, align 8
  %9 = icmp eq ptr %8, null
  br i1 %9, label %.critedge, label %.thread.i

.thread.i:                                        ; preds = %4
  store ptr null, ptr %7, align 8
  %10 = getelementptr inbounds nuw i8, ptr %8, i64 40
  %11 = load i32, ptr %10, align 8
  %.not15.i = icmp eq i32 %11, 0
  br i1 %.not15.i, label %_Z30textFileFormatYy_delete_bufferP15yy_buffer_statePv.exit, label %12

12:                                               ; preds = %.thread.i
  %13 = getelementptr inbounds nuw i8, ptr %8, i64 8
  %14 = load ptr, ptr %13, align 8
  tail call void @free(ptr noundef %14) #32
  br label %_Z30textFileFormatYy_delete_bufferP15yy_buffer_statePv.exit

_Z30textFileFormatYy_delete_bufferP15yy_buffer_statePv.exit: ; preds = %.thread.i, %12
  tail call void @free(ptr noundef nonnull %8) #32
  %15 = load ptr, ptr %2, align 8
  %16 = load i64, ptr %5, align 8
  %17 = getelementptr inbounds ptr, ptr %15, i64 %16
  store ptr null, ptr %17, align 8
  %18 = load i64, ptr %5, align 8
  %.not22 = icmp eq i64 %18, 0
  br i1 %.not22, label %21, label %19

19:                                               ; preds = %_Z30textFileFormatYy_delete_bufferP15yy_buffer_statePv.exit
  %20 = add i64 %18, -1
  store i64 %20, ptr %5, align 8
  br label %21

21:                                               ; preds = %19, %_Z30textFileFormatYy_delete_bufferP15yy_buffer_statePv.exit
  %22 = phi i64 [ %20, %19 ], [ 0, %_Z30textFileFormatYy_delete_bufferP15yy_buffer_statePv.exit ]
  %23 = load ptr, ptr %2, align 8
  %.not23 = icmp eq ptr %23, null
  br i1 %.not23, label %.critedge, label %24

24:                                               ; preds = %21
  %25 = getelementptr inbounds ptr, ptr %23, i64 %22
  %26 = load ptr, ptr %25, align 8
  %27 = icmp eq ptr %26, null
  br i1 %27, label %.critedge, label %28

28:                                               ; preds = %24
  %29 = getelementptr inbounds nuw i8, ptr %26, i64 32
  %30 = load i64, ptr %29, align 8
  %31 = getelementptr inbounds nuw i8, ptr %0, i64 56
  store i64 %30, ptr %31, align 8
  %32 = load ptr, ptr %25, align 8
  %33 = getelementptr inbounds nuw i8, ptr %32, i64 16
  %34 = load ptr, ptr %33, align 8
  %35 = getelementptr inbounds nuw i8, ptr %0, i64 72
  store ptr %34, ptr %35, align 8
  %36 = getelementptr inbounds nuw i8, ptr %0, i64 136
  store ptr %34, ptr %36, align 8
  %37 = load ptr, ptr %25, align 8
  %38 = load ptr, ptr %37, align 8
  %39 = getelementptr inbounds nuw i8, ptr %0, i64 8
  store ptr %38, ptr %39, align 8
  %40 = load i8, ptr %34, align 1
  %41 = getelementptr inbounds nuw i8, ptr %0, i64 48
  store i8 %40, ptr %41, align 8
  %42 = getelementptr inbounds nuw i8, ptr %0, i64 88
  store i32 1, ptr %42, align 8
  br label %.critedge

.critedge:                                        ; preds = %21, %1, %4, %28, %24
  ret void
}